target datalayout = "e-m:e-p270:32:32-p271:32:32-p272:64:64-i64:64-i128:128-f80:128-n8:16:32:64-S128"
target triple = "x86_64-unknown-linux-gnu"

%class.btVector3 = type { [4 x float] }
%class.btConeShape = type { %class.btConvexInternalShape, float, float, float, [3 x i32] }
%class.btConvexInternalShape = type { %class.btConvexShape, %class.btVector3, %class.btVector3, float, float }
%class.btConvexShape = type { %class.btCollisionShape }
%class.btCollisionShape = type { ptr, i32, ptr, i32, i32 }

; Function Attrs: mustprogress nounwind uwtable
define linkonce_odr dso_local noundef float @_Z6btSqrtf(float noundef %y) #1 comdat {
entry:
  %y.addr = alloca float, align 4
  store float %y, ptr %y.addr, align 4
  %0 = load float, ptr %y.addr, align 4
  %call = call float @sqrtf(float noundef %0) #9
  ret float %call
}

; Function Attrs: mustprogress nounwind uwtable
define linkonce_odr dso_local noundef ptr @_ZN9btVector3cvPfEv(ptr noundef nonnull align 4 dereferenceable(16) %this) #1 comdat align 2 {
entry:
  %this.addr = alloca ptr, align 8
  store ptr %this, ptr %this.addr, align 8
  %this1 = load ptr, ptr %this.addr, align 8
  %m_floats = getelementptr inbounds %class.btVector3, ptr %this1, i32 0, i32 0
  %arrayidx = getelementptr inbounds [4 x float], ptr %m_floats, i64 0, i64 0
  ret ptr %arrayidx
}

; Function Attrs: mustprogress nounwind uwtable
define linkonce_odr dso_local noundef ptr @_ZNK9btVector3cvPKfEv(ptr noundef nonnull align 4 dereferenceable(16) %this) #1 comdat align 2 {
entry:
  %this.addr = alloca ptr, align 8
  store ptr %this, ptr %this.addr, align 8
  %this1 = load ptr, ptr %this.addr, align 8
  %m_floats = getelementptr inbounds %class.btVector3, ptr %this1, i32 0, i32 0
  %arrayidx = getelementptr inbounds [4 x float], ptr %m_floats, i64 0, i64 0
  ret ptr %arrayidx
}

; Function Attrs: mustprogress uwtable
define dso_local void @_ZN11btConeShape15setLocalScalingERK9btVector3(ptr noundef nonnull align 8 dereferenceable(96) %this, ptr noundef nonnull align 4 dereferenceable(16) %scaling) unnamed_addr #2 align 2 {
entry:
  %this.addr = alloca ptr, align 8
  %scaling.addr = alloca ptr, align 8
  %axis = alloca i32, align 4
  %r1 = alloca i32, align 4
  %r2 = alloca i32, align 4
  store ptr %this, ptr %this.addr, align 8
  store ptr %scaling, ptr %scaling.addr, align 8
  %this1 = load ptr, ptr %this.addr, align 8
  %m_coneIndices = getelementptr inbounds %class.btConeShape, ptr %this1, i32 0, i32 4
  %arrayidx = getelementptr inbounds [3 x i32], ptr %m_coneIndices, i64 0, i64 1
  %0 = load i32, ptr %arrayidx, align 4
  store i32 %0, ptr %axis, align 4
  %m_coneIndices2 = getelementptr inbounds %class.btConeShape, ptr %this1, i32 0, i32 4
  %arrayidx3 = getelementptr inbounds [3 x i32], ptr %m_coneIndices2, i64 0, i64 0
  %1 = load i32, ptr %arrayidx3, align 4
  store i32 %1, ptr %r1, align 4
  %m_coneIndices4 = getelementptr inbounds %class.btConeShape, ptr %this1, i32 0, i32 4
  %arrayidx5 = getelementptr inbounds [3 x i32], ptr %m_coneIndices4, i64 0, i64 2
  %2 = load i32, ptr %arrayidx5, align 4
  store i32 %2, ptr %r2, align 4
  %3 = load ptr, ptr %scaling.addr, align 8
  %call = call noundef ptr @_ZNK9btVector3cvPKfEv(ptr noundef nonnull align 4 dereferenceable(16) %3)
  %4 = load i32, ptr %axis, align 4
  %idxprom = sext i32 %4 to i64
  %arrayidx6 = getelementptr inbounds float, ptr %call, i64 %idxprom
  %5 = load float, ptr %arrayidx6, align 4
  %m_localScaling = getelementptr inbounds %class.btConvexInternalShape, ptr %this1, i32 0, i32 1
  %call7 = call noundef ptr @_ZN9btVector3cvPfEv(ptr noundef nonnull align 4 dereferenceable(16) %m_localScaling)
  %6 = load i32, ptr %axis, align 4
  %idxprom8 = sext i32 %6 to i64
  %arrayidx9 = getelementptr inbounds float, ptr %call7, i64 %idxprom8
  %7 = load float, ptr %arrayidx9, align 4
  %div = fdiv float %5, %7
  %m_height = getelementptr inbounds %class.btConeShape, ptr %this1, i32 0, i32 3
  %8 = load float, ptr %m_height, align 8
  %mul = fmul float %8, %div
  store float %mul, ptr %m_height, align 8
  %9 = load ptr, ptr %scaling.addr, align 8
  %call10 = call noundef ptr @_ZNK9btVector3cvPKfEv(ptr noundef nonnull align 4 dereferenceable(16) %9)
  %10 = load i32, ptr %r1, align 4
  %idxprom11 = sext i32 %10 to i64
  %arrayidx12 = getelementptr inbounds float, ptr %call10, i64 %idxprom11
  %11 = load float, ptr %arrayidx12, align 4
  %m_localScaling13 = getelementptr inbounds %class.btConvexInternalShape, ptr %this1, i32 0, i32 1
  %call14 = call noundef ptr @_ZN9btVector3cvPfEv(ptr noundef nonnull align 4 dereferenceable(16) %m_localScaling13)
  %12 = load i32, ptr %r1, align 4
  %idxprom15 = sext i32 %12 to i64
  %arrayidx16 = getelementptr inbounds float, ptr %call14, i64 %idxprom15
  %13 = load float, ptr %arrayidx16, align 4
  %div17 = fdiv float %11, %13
  %14 = load ptr, ptr %scaling.addr, align 8
  %call18 = call noundef ptr @_ZNK9btVector3cvPKfEv(ptr noundef nonnull align 4 dereferenceable(16) %14)
  %15 = load i32, ptr %r2, align 4
  %idxprom19 = sext i32 %15 to i64
  %arrayidx20 = getelementptr inbounds float, ptr %call18, i64 %idxprom19
  %16 = load float, ptr %arrayidx20, align 4
  %m_localScaling21 = getelementptr inbounds %class.btConvexInternalShape, ptr %this1, i32 0, i32 1
  %call22 = call noundef ptr @_ZN9btVector3cvPfEv(ptr noundef nonnull align 4 dereferenceable(16) %m_localScaling21)
  %17 = load i32, ptr %r2, align 4
  %idxprom23 = sext i32 %17 to i64
  %arrayidx24 = getelementptr inbounds float, ptr %call22, i64 %idxprom23
  %18 = load float, ptr %arrayidx24, align 4
  %div25 = fdiv float %16, %18
  %add = fadd float %div17, %div25
  %div26 = fdiv float %add, 2.000000e+00
  %m_radius = getelementptr inbounds %class.btConeShape, ptr %this1, i32 0, i32 2
  %19 = load float, ptr %m_radius, align 4
  %mul27 = fmul float %19, %div26
  store float %mul27, ptr %m_radius, align 4
  %m_radius28 = getelementptr inbounds %class.btConeShape, ptr %this1, i32 0, i32 2
  %20 = load float, ptr %m_radius28, align 4
  %m_radius29 = getelementptr inbounds %class.btConeShape, ptr %this1, i32 0, i32 2
  %21 = load float, ptr %m_radius29, align 4
  %m_radius30 = getelementptr inbounds %class.btConeShape, ptr %this1, i32 0, i32 2
  %22 = load float, ptr %m_radius30, align 4
  %m_height32 = getelementptr inbounds %class.btConeShape, ptr %this1, i32 0, i32 3
  %23 = load float, ptr %m_height32, align 8
  %m_height33 = getelementptr inbounds %class.btConeShape, ptr %this1, i32 0, i32 3
  %24 = load float, ptr %m_height33, align 8
  %mul34 = fmul float %23, %24
  %25 = call float @llvm.fmuladd.f32(float %21, float %22, float %mul34)
  %call35 = call noundef float @_Z6btSqrtf(float noundef %25)
  %div36 = fdiv float %20, %call35
  %m_sinAngle = getelementptr inbounds %class.btConeShape, ptr %this1, i32 0, i32 1
  store float %div36, ptr %m_sinAngle, align 8
  %26 = load ptr, ptr %scaling.addr, align 8
  call void @_ZN21btConvexInternalShape15setLocalScalingERK9btVector3(ptr noundef nonnull align 8 dereferenceable(72) %this1, ptr noundef nonnull align 4 dereferenceable(16) %26)
  ret void
}