; Function Attrs: mustprogress uwtable
define dso_local void @_ZN11btConeShape15setLocalScalingERK9btVector3(ptr noundef nonnull align 8 dereferenceable(96) %this, ptr noundef nonnull align 4 dereferenceable(16) %scaling) unnamed_addr #0 align 2 {
entry:
  %m_coneIndices = getelementptr inbounds i8, ptr %this, i64 84
  %arrayidx = getelementptr inbounds i8, ptr %this, i64 88
  %0 = load i32, ptr %arrayidx, align 8
  %1 = load i32, ptr %m_coneIndices, align 4
  %arrayidx5 = getelementptr inbounds i8, ptr %this, i64 92
  %2 = load i32, ptr %arrayidx5, align 4
  %idxprom = sext i32 %0 to i64
  %arrayidx6 = getelementptr inbounds float, ptr %scaling, i64 %idxprom
  %3 = load float, ptr %arrayidx6, align 4
  %m_localScaling = getelementptr inbounds i8, ptr %this, i64 32
  %arrayidx9 = getelementptr inbounds float, ptr %m_localScaling, i64 %idxprom
  %4 = load float, ptr %arrayidx9, align 4
  %div = fdiv float %3, %4
  %m_height = getelementptr inbounds i8, ptr %this, i64 80
  %5 = load float, ptr %m_height, align 8
  %mul = fmul float %5, %div
  store float %mul, ptr %m_height, align 8
  %idxprom11 = sext i32 %1 to i64
  %arrayidx12 = getelementptr inbounds float, ptr %scaling, i64 %idxprom11
  %6 = load float, ptr %arrayidx12, align 4
  %arrayidx16 = getelementptr inbounds float, ptr %m_localScaling, i64 %idxprom11
  %7 = load float, ptr %arrayidx16, align 4
  %div17 = fdiv float %6, %7
  %idxprom19 = sext i32 %2 to i64
  %arrayidx20 = getelementptr inbounds float, ptr %scaling, i64 %idxprom19
  %8 = load float, ptr %arrayidx20, align 4
  %arrayidx24 = getelementptr inbounds float, ptr %m_localScaling, i64 %idxprom19
  %9 = load float, ptr %arrayidx24, align 4
  %div25 = fdiv float %8, %9
  %add = fadd float %div17, %div25
  %div26 = fmul float %add, 5.000000e-01
  %m_radius = getelementptr inbounds i8, ptr %this, i64 76
  %10 = load float, ptr %m_radius, align 4
  %mul27 = fmul float %10, %div26
  store float %mul27, ptr %m_radius, align 4
  %mul34 = fmul float %mul, %mul
  %11 = tail call float @llvm.fmuladd.f32(float %mul27, float %mul27, float %mul34)
  %sqrt = tail call float @llvm.sqrt.f32(float %11)
  %div36 = fdiv float %mul27, %sqrt
  %m_sinAngle = getelementptr inbounds i8, ptr %this, i64 72
  store float %div36, ptr %m_sinAngle, align 8
  tail call void @_ZN21btConvexInternalShape15setLocalScalingERK9btVector3(ptr noundef nonnull align 8 dereferenceable(72) %this, ptr noundef nonnull align 4 dereferenceable(16) %scaling)
  ret void
}